target datalayout = "e-m:e-p270:32:32-p271:32:32-p272:64:64-i64:64-i128:128-f80:128-n8:16:32:64-S128"
target triple = "x86_64-pc-linux-gnu"

%class.Register = type { i32 }
%class.XMMRegister = type { i32 }
%class.Label = type <{ i32, [4 x i32], i32, ptr, i8, [7 x i8] }>

@UseIncDec = external global i8, align 1

; Function Attrs: mustprogress nounwind uwtable
define hidden void @_ZN14MacroAssembler10decrementqE8Registeri(ptr noundef nonnull align 8 dereferenceable(40) %0, i32 %1, i32 noundef %2) #1 align 2 {
  %4 = alloca %class.Register, align 4
  %5 = alloca ptr, align 8
  %6 = alloca i32, align 4
  %7 = alloca %class.Register, align 4
  %8 = alloca %class.Register, align 4
  %9 = alloca %class.Register, align 4
  %10 = alloca %class.Register, align 4
  %11 = getelementptr inbounds %class.Register, ptr %4, i32 0, i32 0
  store i32 %1, ptr %11, align 4
  store ptr %0, ptr %5, align 8
  store i32 %2, ptr %6, align 4
  %12 = load ptr, ptr %5, align 8
  %13 = load i32, ptr %6, align 4
  %14 = icmp eq i32 %13, -2147483648
  br i1 %14, label %15, label %19

15:                                               ; preds = %3
  call void @llvm.memcpy.p0.p0.i64(ptr align 4 %7, ptr align 4 %4, i64 4, i1 false)
  %16 = load i32, ptr %6, align 4
  %17 = getelementptr inbounds %class.Register, ptr %7, i32 0, i32 0
  %18 = load i32, ptr %17, align 4
  call void @_ZN9Assembler4subqE8Registeri(ptr noundef nonnull align 8 dereferenceable(40) %12, i32 %18, i32 noundef %16)
  br label %44

19:                                               ; preds = %3
  %20 = load i32, ptr %6, align 4
  %21 = icmp slt i32 %20, 0
  br i1 %21, label %22, label %27

22:                                               ; preds = %19
  call void @llvm.memcpy.p0.p0.i64(ptr align 4 %8, ptr align 4 %4, i64 4, i1 false)
  %23 = load i32, ptr %6, align 4
  %24 = sub nsw i32 0, %23
  %25 = getelementptr inbounds %class.Register, ptr %8, i32 0, i32 0
  %26 = load i32, ptr %25, align 4
  call void @_ZN14MacroAssembler10incrementqE8Registeri(ptr noundef nonnull align 8 dereferenceable(40) %12, i32 %26, i32 noundef %24)
  br label %44

27:                                               ; preds = %19
  %28 = load i32, ptr %6, align 4
  %29 = icmp eq i32 %28, 0
  br i1 %29, label %30, label %31

30:                                               ; preds = %27
  br label %44

31:                                               ; preds = %27
  %32 = load i32, ptr %6, align 4
  %33 = icmp eq i32 %32, 1
  br i1 %33, label %34, label %40

34:                                               ; preds = %31
  %35 = load i8, ptr @UseIncDec, align 1
  %36 = trunc i8 %35 to i1
  br i1 %36, label %37, label %40

37:                                               ; preds = %34
  call void @llvm.memcpy.p0.p0.i64(ptr align 4 %9, ptr align 4 %4, i64 4, i1 false)
  %38 = getelementptr inbounds %class.Register, ptr %9, i32 0, i32 0
  %39 = load i32, ptr %38, align 4
  call void @_ZN9Assembler4decqE8Register(ptr noundef nonnull align 8 dereferenceable(40) %12, i32 %39)
  br label %44

40:                                               ; preds = %34, %31
  call void @llvm.memcpy.p0.p0.i64(ptr align 4 %10, ptr align 4 %4, i64 4, i1 false)
  %41 = load i32, ptr %6, align 4
  %42 = getelementptr inbounds %class.Register, ptr %10, i32 0, i32 0
  %43 = load i32, ptr %42, align 4
  call void @_ZN9Assembler4subqE8Registeri(ptr noundef nonnull align 8 dereferenceable(40) %12, i32 %43, i32 noundef %41)
  br label %44

44:                                               ; preds = %40, %37, %30, %22, %15
  ret void
}

; Function Attrs: mustprogress nounwind uwtable
define hidden void @_ZN14MacroAssembler10incrementlE8Registeri(ptr noundef nonnull align 8 dereferenceable(40) %0, i32 %1, i32 noundef %2) #1 align 2 {
  %4 = alloca %class.Register, align 4
  %5 = alloca ptr, align 8
  %6 = alloca i32, align 4
  %7 = alloca %class.Register, align 4
  %8 = alloca %class.Register, align 4
  %9 = alloca %class.Register, align 4
  %10 = alloca %class.Register, align 4
  %11 = getelementptr inbounds %class.Register, ptr %4, i32 0, i32 0
  store i32 %1, ptr %11, align 4
  store ptr %0, ptr %5, align 8
  store i32 %2, ptr %6, align 4
  %12 = load ptr, ptr %5, align 8
  %13 = load i32, ptr %6, align 4
  %14 = icmp eq i32 %13, -2147483648
  br i1 %14, label %15, label %19

15:                                               ; preds = %3
  call void @llvm.memcpy.p0.p0.i64(ptr align 4 %7, ptr align 4 %4, i64 4, i1 false)
  %16 = load i32, ptr %6, align 4
  %17 = getelementptr inbounds %class.Register, ptr %7, i32 0, i32 0
  %18 = load i32, ptr %17, align 4
  call void @_ZN9Assembler4addlE8Registeri(ptr noundef nonnull align 8 dereferenceable(40) %12, i32 %18, i32 noundef %16)
  br label %44

19:                                               ; preds = %3
  %20 = load i32, ptr %6, align 4
  %21 = icmp slt i32 %20, 0
  br i1 %21, label %22, label %27

22:                                               ; preds = %19
  call void @llvm.memcpy.p0.p0.i64(ptr align 4 %8, ptr align 4 %4, i64 4, i1 false)
  %23 = load i32, ptr %6, align 4
  %24 = sub nsw i32 0, %23
  %25 = getelementptr inbounds %class.Register, ptr %8, i32 0, i32 0
  %26 = load i32, ptr %25, align 4
  call void @_ZN14MacroAssembler10decrementlE8Registeri(ptr noundef nonnull align 8 dereferenceable(40) %12, i32 %26, i32 noundef %24)
  br label %44

27:                                               ; preds = %19
  %28 = load i32, ptr %6, align 4
  %29 = icmp eq i32 %28, 0
  br i1 %29, label %30, label %31

30:                                               ; preds = %27
  br label %44

31:                                               ; preds = %27
  %32 = load i32, ptr %6, align 4
  %33 = icmp eq i32 %32, 1
  br i1 %33, label %34, label %40

34:                                               ; preds = %31
  %35 = load i8, ptr @UseIncDec, align 1
  %36 = trunc i8 %35 to i1
  br i1 %36, label %37, label %40

37:                                               ; preds = %34
  call void @llvm.memcpy.p0.p0.i64(ptr align 4 %9, ptr align 4 %4, i64 4, i1 false)
  %38 = getelementptr inbounds %class.Register, ptr %9, i32 0, i32 0
  %39 = load i32, ptr %38, align 4
  call void @_ZN9Assembler4inclE8Register(ptr noundef nonnull align 8 dereferenceable(40) %12, i32 %39)
  br label %44

40:                                               ; preds = %34, %31
  call void @llvm.memcpy.p0.p0.i64(ptr align 4 %10, ptr align 4 %4, i64 4, i1 false)
  %41 = load i32, ptr %6, align 4
  %42 = getelementptr inbounds %class.Register, ptr %10, i32 0, i32 0
  %43 = load i32, ptr %42, align 4
  call void @_ZN9Assembler4addlE8Registeri(ptr noundef nonnull align 8 dereferenceable(40) %12, i32 %43, i32 noundef %41)
  br label %44

44:                                               ; preds = %40, %37, %30, %22, %15
  ret void
}

; Function Attrs: mustprogress nounwind uwtable
define hidden void @_ZN14MacroAssembler10incrementqE8Registeri(ptr noundef nonnull align 8 dereferenceable(40) %0, i32 %1, i32 noundef %2) #1 align 2 {
  %4 = alloca %class.Register, align 4
  %5 = alloca ptr, align 8
  %6 = alloca i32, align 4
  %7 = alloca %class.Register, align 4
  %8 = alloca %class.Register, align 4
  %9 = alloca %class.Register, align 4
  %10 = alloca %class.Register, align 4
  %11 = getelementptr inbounds %class.Register, ptr %4, i32 0, i32 0
  store i32 %1, ptr %11, align 4
  store ptr %0, ptr %5, align 8
  store i32 %2, ptr %6, align 4
  %12 = load ptr, ptr %5, align 8
  %13 = load i32, ptr %6, align 4
  %14 = icmp eq i32 %13, -2147483648
  br i1 %14, label %15, label %19

15:                                               ; preds = %3
  call void @llvm.memcpy.p0.p0.i64(ptr align 4 %7, ptr align 4 %4, i64 4, i1 false)
  %16 = load i32, ptr %6, align 4
  %17 = getelementptr inbounds %class.Register, ptr %7, i32 0, i32 0
  %18 = load i32, ptr %17, align 4
  call void @_ZN9Assembler4addqE8Registeri(ptr noundef nonnull align 8 dereferenceable(40) %12, i32 %18, i32 noundef %16)
  br label %44

19:                                               ; preds = %3
  %20 = load i32, ptr %6, align 4
  %21 = icmp slt i32 %20, 0
  br i1 %21, label %22, label %27

22:                                               ; preds = %19
  call void @llvm.memcpy.p0.p0.i64(ptr align 4 %8, ptr align 4 %4, i64 4, i1 false)
  %23 = load i32, ptr %6, align 4
  %24 = sub nsw i32 0, %23
  %25 = getelementptr inbounds %class.Register, ptr %8, i32 0, i32 0
  %26 = load i32, ptr %25, align 4
  call void @_ZN14MacroAssembler10decrementqE8Registeri(ptr noundef nonnull align 8 dereferenceable(40) %12, i32 %26, i32 noundef %24)
  br label %44

27:                                               ; preds = %19
  %28 = load i32, ptr %6, align 4
  %29 = icmp eq i32 %28, 0
  br i1 %29, label %30, label %31

30:                                               ; preds = %27
  br label %44

31:                                               ; preds = %27
  %32 = load i32, ptr %6, align 4
  %33 = icmp eq i32 %32, 1
  br i1 %33, label %34, label %40

34:                                               ; preds = %31
  %35 = load i8, ptr @UseIncDec, align 1
  %36 = trunc i8 %35 to i1
  br i1 %36, label %37, label %40

37:                                               ; preds = %34
  call void @llvm.memcpy.p0.p0.i64(ptr align 4 %9, ptr align 4 %4, i64 4, i1 false)
  %38 = getelementptr inbounds %class.Register, ptr %9, i32 0, i32 0
  %39 = load i32, ptr %38, align 4
  call void @_ZN9Assembler4incqE8Register(ptr noundef nonnull align 8 dereferenceable(40) %12, i32 %39)
  br label %44

40:                                               ; preds = %34, %31
  call void @llvm.memcpy.p0.p0.i64(ptr align 4 %10, ptr align 4 %4, i64 4, i1 false)
  %41 = load i32, ptr %6, align 4
  %42 = getelementptr inbounds %class.Register, ptr %10, i32 0, i32 0
  %43 = load i32, ptr %42, align 4
  call void @_ZN9Assembler4addqE8Registeri(ptr noundef nonnull align 8 dereferenceable(40) %12, i32 %43, i32 noundef %41)
  br label %44

44:                                               ; preds = %40, %37, %30, %22, %15
  ret void
}

; Function Attrs: mustprogress nounwind uwtable
define linkonce_odr hidden void @_ZN5Label4initEv(ptr noundef nonnull align 8 dereferenceable(33) %0) #1 comdat align 2 {
  %2 = alloca ptr, align 8
  store ptr %0, ptr %2, align 8
  %3 = load ptr, ptr %2, align 8
  %4 = getelementptr inbounds %class.Label, ptr %3, i32 0, i32 0
  store i32 -1, ptr %4, align 8
  %5 = getelementptr inbounds %class.Label, ptr %3, i32 0, i32 2
  store i32 0, ptr %5, align 4
  %6 = getelementptr inbounds %class.Label, ptr %3, i32 0, i32 3
  store ptr null, ptr %6, align 8
  %7 = getelementptr inbounds %class.Label, ptr %3, i32 0, i32 4
  store i8 0, ptr %7, align 8
  ret void
}

; Function Attrs: mustprogress nounwind uwtable
define linkonce_odr hidden void @_ZN5LabelD2Ev(ptr noundef nonnull align 8 dereferenceable(33) %0) unnamed_addr #1 comdat align 2 {
  %2 = alloca ptr, align 8
  store ptr %0, ptr %2, align 8
  ret void
}

; Function Attrs: mustprogress nounwind uwtable
define hidden void @_ZN14MacroAssembler10decrementlE8Registeri(ptr noundef nonnull align 8 dereferenceable(40) %0, i32 %1, i32 noundef %2) #1 align 2 {
  %4 = alloca %class.Register, align 4
  %5 = alloca ptr, align 8
  %6 = alloca i32, align 4
  %7 = alloca %class.Register, align 4
  %8 = alloca %class.Register, align 4
  %9 = alloca %class.Register, align 4
  %10 = alloca %class.Register, align 4
  %11 = getelementptr inbounds %class.Register, ptr %4, i32 0, i32 0
  store i32 %1, ptr %11, align 4
  store ptr %0, ptr %5, align 8
  store i32 %2, ptr %6, align 4
  %12 = load ptr, ptr %5, align 8
  %13 = load i32, ptr %6, align 4
  %14 = icmp eq i32 %13, -2147483648
  br i1 %14, label %15, label %19

15:                                               ; preds = %3
  call void @llvm.memcpy.p0.p0.i64(ptr align 4 %7, ptr align 4 %4, i64 4, i1 false)
  %16 = load i32, ptr %6, align 4
  %17 = getelementptr inbounds %class.Register, ptr %7, i32 0, i32 0
  %18 = load i32, ptr %17, align 4
  call void @_ZN9Assembler4sublE8Registeri(ptr noundef nonnull align 8 dereferenceable(40) %12, i32 %18, i32 noundef %16)
  br label %44

19:                                               ; preds = %3
  %20 = load i32, ptr %6, align 4
  %21 = icmp slt i32 %20, 0
  br i1 %21, label %22, label %27

22:                                               ; preds = %19
  call void @llvm.memcpy.p0.p0.i64(ptr align 4 %8, ptr align 4 %4, i64 4, i1 false)
  %23 = load i32, ptr %6, align 4
  %24 = sub nsw i32 0, %23
  %25 = getelementptr inbounds %class.Register, ptr %8, i32 0, i32 0
  %26 = load i32, ptr %25, align 4
  call void @_ZN14MacroAssembler10incrementlE8Registeri(ptr noundef nonnull align 8 dereferenceable(40) %12, i32 %26, i32 noundef %24)
  br label %44

27:                                               ; preds = %19
  %28 = load i32, ptr %6, align 4
  %29 = icmp eq i32 %28, 0
  br i1 %29, label %30, label %31

30:                                               ; preds = %27
  br label %44

31:                                               ; preds = %27
  %32 = load i32, ptr %6, align 4
  %33 = icmp eq i32 %32, 1
  br i1 %33, label %34, label %40

34:                                               ; preds = %31
  %35 = load i8, ptr @UseIncDec, align 1
  %36 = trunc i8 %35 to i1
  br i1 %36, label %37, label %40

37:                                               ; preds = %34
  call void @llvm.memcpy.p0.p0.i64(ptr align 4 %9, ptr align 4 %4, i64 4, i1 false)
  %38 = getelementptr inbounds %class.Register, ptr %9, i32 0, i32 0
  %39 = load i32, ptr %38, align 4
  call void @_ZN9Assembler4declE8Register(ptr noundef nonnull align 8 dereferenceable(40) %12, i32 %39)
  br label %44

40:                                               ; preds = %34, %31
  call void @llvm.memcpy.p0.p0.i64(ptr align 4 %10, ptr align 4 %4, i64 4, i1 false)
  %41 = load i32, ptr %6, align 4
  %42 = getelementptr inbounds %class.Register, ptr %10, i32 0, i32 0
  %43 = load i32, ptr %42, align 4
  call void @_ZN9Assembler4sublE8Registeri(ptr noundef nonnull align 8 dereferenceable(40) %12, i32 %43, i32 noundef %41)
  br label %44

44:                                               ; preds = %40, %37, %30, %22, %15
  ret void
}

; Function Attrs: mustprogress nounwind uwtable
define linkonce_odr hidden void @_ZN14MacroAssembler9incrementE8Registeri(ptr noundef nonnull align 8 dereferenceable(40) %0, i32 %1, i32 noundef %2) #1 comdat align 2 {
  %4 = alloca %class.Register, align 4
  %5 = alloca ptr, align 8
  %6 = alloca i32, align 4
  %7 = alloca %class.Register, align 4
  %8 = getelementptr inbounds %class.Register, ptr %4, i32 0, i32 0
  store i32 %1, ptr %8, align 4
  store ptr %0, ptr %5, align 8
  store i32 %2, ptr %6, align 4
  %9 = load ptr, ptr %5, align 8
  call void @llvm.memcpy.p0.p0.i64(ptr align 4 %7, ptr align 4 %4, i64 4, i1 false)
  %10 = load i32, ptr %6, align 4
  %11 = getelementptr inbounds %class.Register, ptr %7, i32 0, i32 0
  %12 = load i32, ptr %11, align 4
  call void @_ZN14MacroAssembler10incrementqE8Registeri(ptr noundef nonnull align 8 dereferenceable(40) %9, i32 %12, i32 noundef %10)
  ret void
}

; Function Attrs: mustprogress nounwind uwtable
define linkonce_odr hidden void @_ZN5LabelC2Ev(ptr noundef nonnull align 8 dereferenceable(33) %0) unnamed_addr #1 comdat align 2 {
  %2 = alloca ptr, align 8
  store ptr %0, ptr %2, align 8
  %3 = load ptr, ptr %2, align 8
  call void @_ZN5Label4initEv(ptr noundef nonnull align 8 dereferenceable(33) %3)
  ret void
}

; Function Attrs: mustprogress nounwind uwtable
define linkonce_odr hidden void @_ZN14MacroAssembler7ucomissE11XMMRegisterS0_(ptr noundef nonnull align 8 dereferenceable(40) %0, i32 %1, i32 %2) #1 comdat align 2 {
  %4 = alloca %class.XMMRegister, align 4
  %5 = alloca %class.XMMRegister, align 4
  %6 = alloca ptr, align 8
  %7 = alloca %class.XMMRegister, align 4
  %8 = alloca %class.XMMRegister, align 4
  %9 = getelementptr inbounds %class.XMMRegister, ptr %4, i32 0, i32 0
  store i32 %1, ptr %9, align 4
  %10 = getelementptr inbounds %class.XMMRegister, ptr %5, i32 0, i32 0
  store i32 %2, ptr %10, align 4
  store ptr %0, ptr %6, align 8
  %11 = load ptr, ptr %6, align 8
  call void @llvm.memcpy.p0.p0.i64(ptr align 4 %7, ptr align 4 %4, i64 4, i1 false)
  call void @llvm.memcpy.p0.p0.i64(ptr align 4 %8, ptr align 4 %5, i64 4, i1 false)
  %12 = getelementptr inbounds %class.XMMRegister, ptr %7, i32 0, i32 0
  %13 = load i32, ptr %12, align 4
  %14 = getelementptr inbounds %class.XMMRegister, ptr %8, i32 0, i32 0
  %15 = load i32, ptr %14, align 4
  call void @_ZN9Assembler7ucomissE11XMMRegisterS0_(ptr noundef nonnull align 8 dereferenceable(40) %11, i32 %13, i32 %15)
  ret void
}

; Function Attrs: mustprogress nounwind uwtable
define hidden void @_ZN14MacroAssembler9cmpss2intE11XMMRegisterS0_8Registerb(ptr noundef nonnull align 8 dereferenceable(40) %0, i32 %1, i32 %2, i32 %3, i1 noundef zeroext %4) #1 align 2 {
  %6 = alloca %class.XMMRegister, align 4
  %7 = alloca %class.XMMRegister, align 4
  %8 = alloca %class.Register, align 4
  %9 = alloca ptr, align 8
  %10 = alloca i8, align 1
  %11 = alloca %class.XMMRegister, align 4
  %12 = alloca %class.XMMRegister, align 4
  %13 = alloca %class.Label, align 8
  %14 = alloca %class.Register, align 4
  %15 = alloca %class.Register, align 4
  %16 = alloca %class.Register, align 4
  %17 = alloca %class.Register, align 4
  %18 = alloca %class.Register, align 4
  %19 = alloca %class.Register, align 4
  %20 = getelementptr inbounds %class.XMMRegister, ptr %6, i32 0, i32 0
  store i32 %1, ptr %20, align 4
  %21 = getelementptr inbounds %class.XMMRegister, ptr %7, i32 0, i32 0
  store i32 %2, ptr %21, align 4
  %22 = getelementptr inbounds %class.Register, ptr %8, i32 0, i32 0
  store i32 %3, ptr %22, align 4
  store ptr %0, ptr %9, align 8
  %23 = zext i1 %4 to i8
  store i8 %23, ptr %10, align 1
  %24 = load ptr, ptr %9, align 8
  call void @llvm.memcpy.p0.p0.i64(ptr align 4 %11, ptr align 4 %6, i64 4, i1 false)
  call void @llvm.memcpy.p0.p0.i64(ptr align 4 %12, ptr align 4 %7, i64 4, i1 false)
  %25 = getelementptr inbounds %class.XMMRegister, ptr %11, i32 0, i32 0
  %26 = load i32, ptr %25, align 4
  %27 = getelementptr inbounds %class.XMMRegister, ptr %12, i32 0, i32 0
  %28 = load i32, ptr %27, align 4
  call void @_ZN14MacroAssembler7ucomissE11XMMRegisterS0_(ptr noundef nonnull align 8 dereferenceable(40) %24, i32 %26, i32 %28)
  call void @_ZN5LabelC2Ev(ptr noundef nonnull align 8 dereferenceable(33) %13)
  %29 = load i8, ptr %10, align 1
  %30 = trunc i8 %29 to i1
  br i1 %30, label %31, label %38

31:                                               ; preds = %5
  call void @llvm.memcpy.p0.p0.i64(ptr align 4 %14, ptr align 4 %8, i64 4, i1 false)
  %32 = getelementptr inbounds %class.Register, ptr %14, i32 0, i32 0
  %33 = load i32, ptr %32, align 4
  call void @_ZN9Assembler4movlE8Registeri(ptr noundef nonnull align 8 dereferenceable(40) %24, i32 %33, i32 noundef -1)
  call void @_ZN9Assembler3jccENS_9ConditionER5Labelb(ptr noundef nonnull align 8 dereferenceable(40) %24, i32 noundef 10, ptr noundef nonnull align 8 dereferenceable(33) %13, i1 noundef zeroext true)
  call void @_ZN9Assembler3jccENS_9ConditionER5Labelb(ptr noundef nonnull align 8 dereferenceable(40) %24, i32 noundef 2, ptr noundef nonnull align 8 dereferenceable(33) %13, i1 noundef zeroext true)
  call void @llvm.memcpy.p0.p0.i64(ptr align 4 %15, ptr align 4 %8, i64 4, i1 false)
  %34 = getelementptr inbounds %class.Register, ptr %15, i32 0, i32 0
  %35 = load i32, ptr %34, align 4
  call void @_ZN9Assembler4movlE8Registeri(ptr noundef nonnull align 8 dereferenceable(40) %24, i32 %35, i32 noundef 0)
  call void @_ZN9Assembler3jccENS_9ConditionER5Labelb(ptr noundef nonnull align 8 dereferenceable(40) %24, i32 noundef 4, ptr noundef nonnull align 8 dereferenceable(33) %13, i1 noundef zeroext true)
  call void @llvm.memcpy.p0.p0.i64(ptr align 4 %16, ptr align 4 %8, i64 4, i1 false)
  %36 = getelementptr inbounds %class.Register, ptr %16, i32 0, i32 0
  %37 = load i32, ptr %36, align 4
  call void @_ZN14MacroAssembler9incrementE8Registeri(ptr noundef nonnull align 8 dereferenceable(40) %24, i32 %37, i32 noundef 1)
  br label %45

38:                                               ; preds = %5
  call void @llvm.memcpy.p0.p0.i64(ptr align 4 %17, ptr align 4 %8, i64 4, i1 false)
  %39 = getelementptr inbounds %class.Register, ptr %17, i32 0, i32 0
  %40 = load i32, ptr %39, align 4
  call void @_ZN9Assembler4movlE8Registeri(ptr noundef nonnull align 8 dereferenceable(40) %24, i32 %40, i32 noundef 1)
  call void @_ZN9Assembler3jccENS_9ConditionER5Labelb(ptr noundef nonnull align 8 dereferenceable(40) %24, i32 noundef 10, ptr noundef nonnull align 8 dereferenceable(33) %13, i1 noundef zeroext true)
  call void @_ZN9Assembler3jccENS_9ConditionER5Labelb(ptr noundef nonnull align 8 dereferenceable(40) %24, i32 noundef 7, ptr noundef nonnull align 8 dereferenceable(33) %13, i1 noundef zeroext true)
  call void @llvm.memcpy.p0.p0.i64(ptr align 4 %18, ptr align 4 %8, i64 4, i1 false)
  %41 = getelementptr inbounds %class.Register, ptr %18, i32 0, i32 0
  %42 = load i32, ptr %41, align 4
  call void @_ZN9Assembler4movlE8Registeri(ptr noundef nonnull align 8 dereferenceable(40) %24, i32 %42, i32 noundef 0)
  call void @_ZN9Assembler3jccENS_9ConditionER5Labelb(ptr noundef nonnull align 8 dereferenceable(40) %24, i32 noundef 4, ptr noundef nonnull align 8 dereferenceable(33) %13, i1 noundef zeroext true)
  call void @llvm.memcpy.p0.p0.i64(ptr align 4 %19, ptr align 4 %8, i64 4, i1 false)
  %43 = getelementptr inbounds %class.Register, ptr %19, i32 0, i32 0
  %44 = load i32, ptr %43, align 4
  call void @_ZN14MacroAssembler10decrementlE8Registeri(ptr noundef nonnull align 8 dereferenceable(40) %24, i32 %44, i32 noundef 1)
  br label %45

45:                                               ; preds = %38, %31
  call void @_ZN17AbstractAssembler4bindER5Label(ptr noundef nonnull align 8 dereferenceable(24) %24, ptr noundef nonnull align 8 dereferenceable(33) %13)
  call void @_ZN5LabelD2Ev(ptr noundef nonnull align 8 dereferenceable(33) %13) #7
  ret void
}