; Function Attrs: mustprogress nounwind uwtable
define hidden void @_ZN14MacroAssembler9cmpss2intE11XMMRegisterS0_8Registerb(ptr noundef nonnull align 8 dereferenceable(40) %0, i32 %1, i32 %2, i32 %3, i1 noundef zeroext %4) local_unnamed_addr #0 align 2 {
  %6 = alloca %class.Label, align 8
  tail call void @_ZN9Assembler7ucomissE11XMMRegisterS0_(ptr noundef nonnull align 8 dereferenceable(40) %0, i32 %1, i32 %2) #18
  store i32 -1, ptr %6, align 8
  %7 = getelementptr inbounds i8, ptr %6, i64 20
  store i32 0, ptr %7, align 4
  %8 = getelementptr inbounds i8, ptr %6, i64 24
  store ptr null, ptr %8, align 8
  %9 = getelementptr inbounds i8, ptr %6, i64 32
  store i8 0, ptr %9, align 8
  br i1 %4, label %10, label %15

10:                                               ; preds = %5
  tail call void @_ZN9Assembler4movlE8Registeri(ptr noundef nonnull align 8 dereferenceable(40) %0, i32 %3, i32 noundef -1) #18
  call void @_ZN9Assembler3jccENS_9ConditionER5Labelb(ptr noundef nonnull align 8 dereferenceable(40) %0, i32 noundef 10, ptr noundef nonnull align 8 dereferenceable(33) %6, i1 noundef zeroext true) #18
  call void @_ZN9Assembler3jccENS_9ConditionER5Labelb(ptr noundef nonnull align 8 dereferenceable(40) %0, i32 noundef 2, ptr noundef nonnull align 8 dereferenceable(33) %6, i1 noundef zeroext true) #18
  call void @_ZN9Assembler4movlE8Registeri(ptr noundef nonnull align 8 dereferenceable(40) %0, i32 %3, i32 noundef 0) #18
  call void @_ZN9Assembler3jccENS_9ConditionER5Labelb(ptr noundef nonnull align 8 dereferenceable(40) %0, i32 noundef 4, ptr noundef nonnull align 8 dereferenceable(33) %6, i1 noundef zeroext true) #18
  %11 = load i8, ptr @UseIncDec, align 1
  %12 = trunc i8 %11 to i1
  br i1 %12, label %13, label %14

13:                                               ; preds = %10
  call void @_ZN9Assembler4incqE8Register(ptr noundef nonnull align 8 dereferenceable(40) %0, i32 %3) #18
  br label %_ZN14MacroAssembler9incrementE8Registeri.exit

14:                                               ; preds = %10
  call void @_ZN9Assembler4addqE8Registeri(ptr noundef nonnull align 8 dereferenceable(40) %0, i32 %3, i32 noundef 1) #18
  br label %_ZN14MacroAssembler9incrementE8Registeri.exit

15:                                               ; preds = %5
  tail call void @_ZN9Assembler4movlE8Registeri(ptr noundef nonnull align 8 dereferenceable(40) %0, i32 %3, i32 noundef 1) #18
  call void @_ZN9Assembler3jccENS_9ConditionER5Labelb(ptr noundef nonnull align 8 dereferenceable(40) %0, i32 noundef 10, ptr noundef nonnull align 8 dereferenceable(33) %6, i1 noundef zeroext true) #18
  call void @_ZN9Assembler3jccENS_9ConditionER5Labelb(ptr noundef nonnull align 8 dereferenceable(40) %0, i32 noundef 7, ptr noundef nonnull align 8 dereferenceable(33) %6, i1 noundef zeroext true) #18
  call void @_ZN9Assembler4movlE8Registeri(ptr noundef nonnull align 8 dereferenceable(40) %0, i32 %3, i32 noundef 0) #18
  call void @_ZN9Assembler3jccENS_9ConditionER5Labelb(ptr noundef nonnull align 8 dereferenceable(40) %0, i32 noundef 4, ptr noundef nonnull align 8 dereferenceable(33) %6, i1 noundef zeroext true) #18
  %16 = load i8, ptr @UseIncDec, align 1
  %17 = trunc i8 %16 to i1
  br i1 %17, label %18, label %19

18:                                               ; preds = %15
  call void @_ZN9Assembler4declE8Register(ptr noundef nonnull align 8 dereferenceable(40) %0, i32 %3) #18
  br label %_ZN14MacroAssembler9incrementE8Registeri.exit

19:                                               ; preds = %15
  call void @_ZN9Assembler4sublE8Registeri(ptr noundef nonnull align 8 dereferenceable(40) %0, i32 %3, i32 noundef 1) #18
  br label %_ZN14MacroAssembler9incrementE8Registeri.exit

_ZN14MacroAssembler9incrementE8Registeri.exit:    ; preds = %19, %18, %14, %13
  call void @_ZN17AbstractAssembler4bindER5Label(ptr noundef nonnull align 8 dereferenceable(24) %0, ptr noundef nonnull align 8 dereferenceable(33) %6) #18
  ret void
}